; Function Attrs: mustprogress nounwind uwtable
define dso_local void @_ZN2EA8UnitTest14TestCollectionD0Ev(ptr noundef nonnull align 8 dereferenceable(32) %this) unnamed_addr #7 align 2 personality ptr @__gxx_personality_v0 {
entry:
  store ptr getelementptr inbounds ({ [10 x ptr] }, ptr @_ZTVN2EA8UnitTest14TestCollectionE, i64 0, i32 0, i64 2), ptr %this, align 8
  %mTests.i = getelementptr inbounds i8, ptr %this, i64 8
  %mpEnd.i.i = getelementptr inbounds i8, ptr %this, i64 16
  br label %while.cond.i

while.cond.i:                                     ; preds = %while.body.i, %entry
  %0 = load ptr, ptr %mTests.i, align 8
  %1 = load ptr, ptr %mpEnd.i.i, align 8
  %cmp.i.i = icmp eq ptr %0, %1
  br i1 %cmp.i.i, label %while.end.i, label %while.body.i

while.body.i:                                     ; preds = %while.cond.i
  %incdec.ptr.i.i = getelementptr inbounds i8, ptr %1, i64 -16
  %2 = load ptr, ptr %incdec.ptr.i.i, align 8
  %vtable.i = load ptr, ptr %this, align 8
  %vfn.i = getelementptr inbounds i8, ptr %vtable.i, i64 40
  %3 = load ptr, ptr %vfn.i, align 8
  %call5.i = invoke noundef zeroext i1 %3(ptr noundef nonnull align 8 dereferenceable(32) %this, ptr noundef %2, i1 noundef zeroext true)
          to label %while.cond.i unwind label %terminate.lpad.i, !llvm.loop !9

while.end.i:                                      ; preds = %while.cond.i
  %tobool.not.i.i.i = icmp eq ptr %0, null
  br i1 %tobool.not.i.i.i, label %_ZN2EA8UnitTest14TestCollectionD2Ev.exit, label %_ZN5eastl9allocator10deallocateEPvm.exit.i.i.i

_ZN5eastl9allocator10deallocateEPvm.exit.i.i.i:   ; preds = %while.end.i
  tail call void @_ZdaPv(ptr noundef nonnull %0) #31
  br label %_ZN2EA8UnitTest14TestCollectionD2Ev.exit

terminate.lpad.i:                                 ; preds = %while.body.i
  %4 = landingpad { ptr, i32 }
          catch ptr null
  %5 = extractvalue { ptr, i32 } %4, 0
  tail call void @__clang_call_terminate(ptr %5) #34
  unreachable

_ZN2EA8UnitTest14TestCollectionD2Ev.exit:         ; preds = %while.end.i, %_ZN5eastl9allocator10deallocateEPvm.exit.i.i.i
  tail call void @_ZdlPv(ptr noundef nonnull %this) #31
  ret void
}